target datalayout = "e-m:e-p270:32:32-p271:32:32-p272:64:64-i64:64-i128:128-f80:128-n8:16:32:64-S128"
target triple = "x86_64-pc-linux-gnu"

%struct.expert_field = type { i32, i32 }
%struct._packet_info = type { ptr, ptr, i32, i32, %struct.nstime_t, %struct.nstime_t, %struct.nstime_t, i8, ptr, ptr, ptr, ptr, %struct._address, %struct._address, %struct._address, %struct._address, %struct._address, %struct._address, i32, ptr, i8, [3 x i8], %struct.anon, i32, i32, i32, i32, ptr, i8, ptr, ptr, i16, i16, i32, i32, i16, i32, i32, ptr, ptr, ptr, i8, i8, i16, i16, i16, i32, i16, i16, ptr, ptr, ptr, ptr, ptr, i32, i32 }
%struct.nstime_t = type { i64, i32 }
%struct._address = type { i32, i32, ptr, ptr }
%struct.anon = type { i8, [3 x i8] }

@ei_vnc_possible_gtk_vnc_bug = internal global %struct.expert_field zeroinitializer, align 4
@vnc_handle = internal global ptr null, align 8
@.str.823 = private unnamed_addr constant [5 x i8] c"RFB \00", align 1

; Function Attrs: null_pointer_is_valid sspstrong uwtable
define internal zeroext i1 @vnc_is_client_or_server_version_message(ptr noundef %0, ptr noundef %1, ptr noundef %2) #0 {
  %4 = alloca i1, align 1
  %5 = alloca ptr, align 8
  %6 = alloca ptr, align 8
  %7 = alloca ptr, align 8
  store ptr %0, ptr %5, align 8
  store ptr %1, ptr %6, align 8
  store ptr %2, ptr %7, align 8
  %8 = load ptr, ptr %5, align 8
  %9 = call i32 @tvb_captured_length(ptr noundef %8)
  %10 = icmp ne i32 %9, 12
  br i1 %10, label %11, label %12

11:                                               ; preds = %3
  store i1 false, ptr %4, align 1
  br label %47

12:                                               ; preds = %3
  %13 = load ptr, ptr %5, align 8
  %14 = call i32 @tvb_strncaseeql(ptr noundef %13, i32 noundef 0, ptr noundef @.str.823, i64 noundef 4)
  %15 = icmp ne i32 %14, 0
  br i1 %15, label %16, label %17

16:                                               ; preds = %12
  store i1 false, ptr %4, align 1
  br label %47

17:                                               ; preds = %12
  %18 = load ptr, ptr %5, align 8
  %19 = call zeroext i8 @tvb_get_uint8(ptr noundef %18, i32 noundef 7)
  %20 = zext i8 %19 to i32
  %21 = icmp ne i32 %20, 46
  br i1 %21, label %22, label %23

22:                                               ; preds = %17
  store i1 false, ptr %4, align 1
  br label %47

23:                                               ; preds = %17
  %24 = load ptr, ptr %5, align 8
  %25 = call zeroext i8 @tvb_get_uint8(ptr noundef %24, i32 noundef 11)
  %26 = zext i8 %25 to i32
  %27 = icmp ne i32 %26, 10
  br i1 %27, label %28, label %46

28:                                               ; preds = %23
  %29 = load ptr, ptr %5, align 8
  %30 = call zeroext i8 @tvb_get_uint8(ptr noundef %29, i32 noundef 11)
  %31 = zext i8 %30 to i32
  %32 = icmp eq i32 %31, 0
  br i1 %32, label %33, label %45

33:                                               ; preds = %28
  %34 = load ptr, ptr %6, align 8
  %35 = icmp ne ptr %34, null
  br i1 %35, label %36, label %44

36:                                               ; preds = %33
  %37 = load ptr, ptr %7, align 8
  %38 = icmp ne ptr %37, null
  br i1 %38, label %39, label %44

39:                                               ; preds = %36
  %40 = load ptr, ptr %7, align 8
  %41 = load ptr, ptr %6, align 8
  %42 = load ptr, ptr %5, align 8
  %43 = call ptr @proto_tree_add_expert(ptr noundef %40, ptr noundef %41, ptr noundef @ei_vnc_possible_gtk_vnc_bug, ptr noundef %42, i32 noundef -1, i32 noundef 0)
  br label %44

44:                                               ; preds = %39, %36, %33
  store i1 true, ptr %4, align 1
  br label %47

45:                                               ; preds = %28
  store i1 false, ptr %4, align 1
  br label %47

46:                                               ; preds = %23
  store i1 true, ptr %4, align 1
  br label %47

47:                                               ; preds = %46, %45, %44, %22, %16, %11
  %48 = load i1, ptr %4, align 1
  ret i1 %48
}

; Function Attrs: null_pointer_is_valid sspstrong uwtable
define internal zeroext i1 @test_vnc_protocol(ptr noundef %0, ptr noundef %1, ptr noundef %2, ptr noundef %3) #0 {
  %5 = alloca i1, align 1
  %6 = alloca ptr, align 8
  %7 = alloca ptr, align 8
  %8 = alloca ptr, align 8
  %9 = alloca ptr, align 8
  %10 = alloca ptr, align 8
  %11 = alloca i32, align 4
  store ptr %0, ptr %6, align 8
  store ptr %1, ptr %7, align 8
  store ptr %2, ptr %8, align 8
  store ptr %3, ptr %9, align 8
  call void @llvm.lifetime.start.p0(i64 8, ptr %10) #5
  %12 = load ptr, ptr %6, align 8
  %13 = call zeroext i1 @vnc_is_client_or_server_version_message(ptr noundef %12, ptr noundef null, ptr noundef null)
  br i1 %13, label %14, label %40

14:                                               ; preds = %4
  %15 = load ptr, ptr %7, align 8
  %16 = getelementptr inbounds nuw %struct._packet_info, ptr %15, i32 0, i32 3
  %17 = load i32, ptr %16, align 4
  %18 = load ptr, ptr %7, align 8
  %19 = getelementptr inbounds nuw %struct._packet_info, ptr %18, i32 0, i32 16
  %20 = load ptr, ptr %7, align 8
  %21 = getelementptr inbounds nuw %struct._packet_info, ptr %20, i32 0, i32 17
  %22 = load ptr, ptr %7, align 8
  %23 = getelementptr inbounds nuw %struct._packet_info, ptr %22, i32 0, i32 23
  %24 = load i32, ptr %23, align 8
  %25 = call i32 @conversation_pt_to_conversation_type(i32 noundef %24)
  %26 = load ptr, ptr %7, align 8
  %27 = getelementptr inbounds nuw %struct._packet_info, ptr %26, i32 0, i32 24
  %28 = load i32, ptr %27, align 4
  %29 = load ptr, ptr %7, align 8
  %30 = getelementptr inbounds nuw %struct._packet_info, ptr %29, i32 0, i32 25
  %31 = load i32, ptr %30, align 8
  %32 = call ptr @conversation_new(i32 noundef %17, ptr noundef %19, ptr noundef %21, i32 noundef %25, i32 noundef %28, i32 noundef %31, i32 noundef 0)
  store ptr %32, ptr %10, align 8
  %33 = load ptr, ptr %10, align 8
  %34 = load ptr, ptr @vnc_handle, align 8
  call void @conversation_set_dissector(ptr noundef %33, ptr noundef %34)
  %35 = load ptr, ptr %6, align 8
  %36 = load ptr, ptr %7, align 8
  %37 = load ptr, ptr %8, align 8
  %38 = load ptr, ptr %9, align 8
  %39 = call i32 @dissect_vnc(ptr noundef %35, ptr noundef %36, ptr noundef %37, ptr noundef %38)
  store i1 true, ptr %5, align 1
  store i32 1, ptr %11, align 4
  br label %41

40:                                               ; preds = %4
  store i1 false, ptr %5, align 1
  store i32 1, ptr %11, align 4
  br label %41

41:                                               ; preds = %40, %14
  call void @llvm.lifetime.end.p0(i64 8, ptr %10) #5
  %42 = load i1, ptr %5, align 1
  ret i1 %42
}