; Function Attrs: null_pointer_is_valid sspstrong uwtable
define internal noundef zeroext i1 @test_vnc_protocol(ptr noundef %0, ptr noundef %1, ptr noundef %2, ptr readnone captures(none) %3) #0 {
  %5 = tail call i32 @tvb_captured_length(ptr noundef %0)
  %.not.i = icmp eq i32 %5, 12
  br i1 %.not.i, label %6, label %vnc_is_client_or_server_version_message.exit.thread

6:                                                ; preds = %4
  %7 = tail call i32 @tvb_strncaseeql(ptr noundef %0, i32 noundef 0, ptr noundef nonnull @.str.823, i64 noundef 4)
  %.not14.i = icmp eq i32 %7, 0
  br i1 %.not14.i, label %8, label %vnc_is_client_or_server_version_message.exit.thread

8:                                                ; preds = %6
  %9 = tail call zeroext i8 @tvb_get_uint8(ptr noundef %0, i32 noundef 7)
  %.not15.i = icmp eq i8 %9, 46
  br i1 %.not15.i, label %10, label %vnc_is_client_or_server_version_message.exit.thread

10:                                               ; preds = %8
  %11 = tail call zeroext i8 @tvb_get_uint8(ptr noundef %0, i32 noundef 11)
  %.not16.i = icmp eq i8 %11, 10
  br i1 %.not16.i, label %vnc_is_client_or_server_version_message.exit, label %12

12:                                               ; preds = %10
  %13 = tail call zeroext i8 @tvb_get_uint8(ptr noundef %0, i32 noundef 11)
  %14 = icmp eq i8 %13, 0
  br i1 %14, label %vnc_is_client_or_server_version_message.exit, label %vnc_is_client_or_server_version_message.exit.thread

vnc_is_client_or_server_version_message.exit:     ; preds = %12, %10
  %15 = getelementptr inbounds nuw i8, ptr %1, i64 20
  %16 = load i32, ptr %15, align 4
  %17 = getelementptr inbounds nuw i8, ptr %1, i64 208
  %18 = getelementptr inbounds nuw i8, ptr %1, i64 232
  %19 = getelementptr inbounds nuw i8, ptr %1, i64 280
  %20 = load i32, ptr %19, align 8
  %21 = tail call i32 @conversation_pt_to_conversation_type(i32 noundef %20)
  %22 = getelementptr inbounds nuw i8, ptr %1, i64 284
  %23 = load i32, ptr %22, align 4
  %24 = getelementptr inbounds nuw i8, ptr %1, i64 288
  %25 = load i32, ptr %24, align 8
  %26 = tail call ptr @conversation_new(i32 noundef %16, ptr noundef nonnull %17, ptr noundef nonnull %18, i32 noundef %21, i32 noundef %23, i32 noundef %25, i32 noundef 0)
  %27 = load ptr, ptr @vnc_handle, align 8
  tail call void @conversation_set_dissector(ptr noundef %26, ptr noundef %27)
  %28 = tail call i32 @dissect_vnc(ptr noundef %0, ptr noundef %1, ptr noundef %2, ptr poison)
  br label %vnc_is_client_or_server_version_message.exit.thread

vnc_is_client_or_server_version_message.exit.thread: ; preds = %12, %8, %6, %4, %vnc_is_client_or_server_version_message.exit
  %.0.i14 = phi i1 [ true, %vnc_is_client_or_server_version_message.exit ], [ false, %4 ], [ false, %6 ], [ false, %8 ], [ false, %12 ]
  ret i1 %.0.i14
}